; Function Attrs: mustprogress nounwind uwtable
define hidden noundef nonnull align 8 dereferenceable(73) ptr @_ZN4LIEF15vector_iostream13write_uleb128Em(ptr noundef nonnull returned align 8 dereferenceable(73) %0, i64 noundef %1) local_unnamed_addr #2 align 2 {
  %3 = alloca i8, align 1
  %4 = getelementptr inbounds nuw i8, ptr %0, i64 24
  %5 = getelementptr inbounds nuw i8, ptr %0, i64 64
  %6 = getelementptr inbounds nuw i8, ptr %0, i64 72
  %.sroa.0.0.copyload.i.i.pre = load i64, ptr %4, align 8, !tbaa !29
  br label %7

7:                                                ; preds = %_ZN4LIEF15vector_iostream5writeIhvEERS0_RKT_.exit, %2
  %.sroa.0.0.copyload.i.i = phi i64 [ %.sroa.0.0.copyload.i.i.pre, %2 ], [ %33, %_ZN4LIEF15vector_iostream5writeIhvEERS0_RKT_.exit ]
  %.0 = phi i64 [ %1, %2 ], [ %34, %_ZN4LIEF15vector_iostream5writeIhvEERS0_RKT_.exit ]
  %8 = trunc i64 %.0 to i8
  %9 = and i8 %8, 127
  %.not = icmp ult i64 %.0, 128
  %masksel = select i1 %.not, i8 0, i8 -128
  %storemerge = or disjoint i8 %9, %masksel
  %10 = load ptr, ptr %5, align 8, !tbaa !6
  %11 = getelementptr inbounds nuw i8, ptr %10, i64 8
  %12 = load ptr, ptr %11, align 8, !tbaa !27
  %13 = load ptr, ptr %10, align 8, !tbaa !28
  %14 = ptrtoint ptr %12 to i64
  %15 = ptrtoint ptr %13 to i64
  %16 = sub i64 %14, %15
  %17 = add i64 %.sroa.0.0.copyload.i.i, 1
  %18 = icmp ult i64 %16, %17
  br i1 %18, label %19, label %20

19:                                               ; preds = %7
  call void @_ZNSt6vectorIhSaIhEE6resizeEm(ptr noundef nonnull align 8 dereferenceable(24) %10, i64 noundef %17)
  br label %20

20:                                               ; preds = %19, %7
  %21 = load i8, ptr %6, align 8, !tbaa !33, !range !34, !noundef !35
  %22 = trunc nuw i8 %21 to i1
  br i1 %22, label %23, label %28

23:                                               ; preds = %20
  call void @llvm.lifetime.start.p0(i64 1, ptr nonnull %3) #15
  store i8 %storemerge, ptr %3, align 1, !tbaa !30
  call void @_ZN4LIEF11swap_endianIhEEvPT_(ptr noundef nonnull %3) #15
  %24 = load ptr, ptr %5, align 8, !tbaa !6
  %25 = load ptr, ptr %24, align 8, !tbaa !28
  %26 = getelementptr inbounds nuw i8, ptr %25, i64 %.sroa.0.0.copyload.i.i
  %27 = load i8, ptr %3, align 1
  store i8 %27, ptr %26, align 1
  call void @llvm.lifetime.end.p0(i64 1, ptr nonnull %3) #15
  br label %_ZN4LIEF15vector_iostream5writeIhvEERS0_RKT_.exit

28:                                               ; preds = %20
  %29 = load ptr, ptr %5, align 8, !tbaa !6
  %30 = load ptr, ptr %29, align 8, !tbaa !28
  %31 = getelementptr inbounds nuw i8, ptr %30, i64 %.sroa.0.0.copyload.i.i
  store i8 %storemerge, ptr %31, align 1
  br label %_ZN4LIEF15vector_iostream5writeIhvEERS0_RKT_.exit

_ZN4LIEF15vector_iostream5writeIhvEERS0_RKT_.exit: ; preds = %23, %28
  %32 = load i64, ptr %4, align 8, !tbaa !31
  %33 = add nsw i64 %32, 1
  store i64 %33, ptr %4, align 8, !tbaa !31
  %34 = lshr i64 %.0, 7
  br i1 %.not, label %35, label %7, !llvm.loop !36

35:                                               ; preds = %_ZN4LIEF15vector_iostream5writeIhvEERS0_RKT_.exit
  ret ptr %0
}